; Function Attrs: nounwind uwtable
define internal void @imdct_and_windowing_ld_fixed(ptr noundef %0, ptr noundef %1) #5 {
  %3 = getelementptr inbounds nuw i8, ptr %1, i64 5520
  %4 = getelementptr inbounds nuw i8, ptr %1, i64 40344
  %5 = load ptr, ptr %4, align 8, !tbaa !58
  %6 = getelementptr inbounds nuw i8, ptr %1, i64 13712
  %7 = getelementptr inbounds nuw i8, ptr %0, i64 4784
  %8 = getelementptr inbounds nuw i8, ptr %0, i64 9496
  %9 = load ptr, ptr %8, align 8, !tbaa !154
  %10 = getelementptr inbounds nuw i8, ptr %0, i64 9424
  %11 = load ptr, ptr %10, align 16, !tbaa !155
  tail call void %9(ptr noundef %11, ptr noundef nonnull %7, ptr noundef nonnull %3, i64 noundef 4) #14
  %12 = getelementptr inbounds nuw i8, ptr %1, i64 13
  %13 = load i8, ptr %12, align 1, !tbaa !58
  %.not = icmp eq i8 %13, 0
  br i1 %.not, label %23, label %14

14:                                               ; preds = %2
  tail call void @llvm.memcpy.p0.p0.i64(ptr noundef nonnull align 4 dereferenceable(768) %5, ptr noundef nonnull align 4 dereferenceable(768) %6, i64 768, i1 false)
  %15 = getelementptr inbounds nuw i8, ptr %0, i64 9536
  %16 = load ptr, ptr %15, align 16, !tbaa !58
  %17 = getelementptr inbounds nuw i8, ptr %16, i64 8
  %18 = load ptr, ptr %17, align 8, !tbaa !143
  %19 = getelementptr inbounds nuw i8, ptr %5, i64 768
  %20 = getelementptr inbounds nuw i8, ptr %1, i64 14480
  tail call void %18(ptr noundef nonnull %19, ptr noundef nonnull %20, ptr noundef nonnull %7, ptr noundef nonnull @sine_128_fixed, i32 noundef 64) #14
  %21 = getelementptr inbounds nuw i8, ptr %5, i64 1280
  %22 = getelementptr inbounds nuw i8, ptr %0, i64 5040
  tail call void @llvm.memcpy.p0.p0.i64(ptr noundef nonnull align 4 dereferenceable(768) %21, ptr noundef nonnull align 4 dereferenceable(768) %22, i64 768, i1 false)
  br label %28

23:                                               ; preds = %2
  %24 = getelementptr inbounds nuw i8, ptr %0, i64 9536
  %25 = load ptr, ptr %24, align 16, !tbaa !58
  %26 = getelementptr inbounds nuw i8, ptr %25, i64 8
  %27 = load ptr, ptr %26, align 8, !tbaa !143
  tail call void %27(ptr noundef %5, ptr noundef nonnull %6, ptr noundef nonnull %7, ptr noundef nonnull @sine_512_fixed, i32 noundef 256) #14
  br label %28

28:                                               ; preds = %23, %14
  %29 = getelementptr inbounds nuw i8, ptr %0, i64 5808
  tail call void @llvm.memcpy.p0.p0.i64(ptr noundef nonnull align 4 dereferenceable(1024) %6, ptr noundef nonnull align 4 dereferenceable(1024) %29, i64 1024, i1 false)
  ret void
}